target datalayout = "e-m:e-p270:32:32-p271:32:32-p272:64:64-i64:64-i128:128-f80:128-n8:16:32:64-S128"
target triple = "x86_64-pc-linux-gnu"

; Function Attrs: nounwind uwtable
define dso_local i32 @zipStoreEntryEncoding(ptr noundef %0, i8 noundef zeroext %1, i32 noundef %2) #0 {
  %4 = alloca i32, align 4
  %5 = alloca ptr, align 8
  %6 = alloca i8, align 1
  %7 = alloca i32, align 4
  %8 = alloca i8, align 1
  %9 = alloca [5 x i8], align 1
  %10 = alloca i32, align 4
  store ptr %0, ptr %5, align 8, !tbaa !5
  store i8 %1, ptr %6, align 1, !tbaa !14
  store i32 %2, ptr %7, align 4, !tbaa !12
  call void @llvm.lifetime.start.p0(i64 1, ptr %8) #11
  store i8 1, ptr %8, align 1, !tbaa !14
  call void @llvm.lifetime.start.p0(i64 5, ptr %9) #11
  %11 = load i8, ptr %6, align 1, !tbaa !14
  %12 = zext i8 %11 to i32
  %13 = and i32 %12, 192
  %14 = icmp slt i32 %13, 192
  br i1 %14, label %15, label %86

15:                                               ; preds = %3
  %16 = load i32, ptr %7, align 4, !tbaa !12
  %17 = icmp ule i32 %16, 63
  br i1 %17, label %18, label %29

18:                                               ; preds = %15
  %19 = load ptr, ptr %5, align 8, !tbaa !5
  %20 = icmp ne ptr %19, null
  br i1 %20, label %24, label %21

21:                                               ; preds = %18
  %22 = load i8, ptr %8, align 1, !tbaa !14
  %23 = zext i8 %22 to i32
  store i32 %23, ptr %4, align 4
  store i32 1, ptr %10, align 4
  br label %102

24:                                               ; preds = %18
  %25 = load i32, ptr %7, align 4, !tbaa !12
  %26 = or i32 0, %25
  %27 = trunc i32 %26 to i8
  %28 = getelementptr inbounds [5 x i8], ptr %9, i64 0, i64 0
  store i8 %27, ptr %28, align 1, !tbaa !14
  br label %85

29:                                               ; preds = %15
  %30 = load i32, ptr %7, align 4, !tbaa !12
  %31 = icmp ule i32 %30, 16383
  br i1 %31, label %32, label %53

32:                                               ; preds = %29
  %33 = load i8, ptr %8, align 1, !tbaa !14
  %34 = zext i8 %33 to i32
  %35 = add nsw i32 %34, 1
  %36 = trunc i32 %35 to i8
  store i8 %36, ptr %8, align 1, !tbaa !14
  %37 = load ptr, ptr %5, align 8, !tbaa !5
  %38 = icmp ne ptr %37, null
  br i1 %38, label %42, label %39

39:                                               ; preds = %32
  %40 = load i8, ptr %8, align 1, !tbaa !14
  %41 = zext i8 %40 to i32
  store i32 %41, ptr %4, align 4
  store i32 1, ptr %10, align 4
  br label %102

42:                                               ; preds = %32
  %43 = load i32, ptr %7, align 4, !tbaa !12
  %44 = lshr i32 %43, 8
  %45 = and i32 %44, 63
  %46 = or i32 64, %45
  %47 = trunc i32 %46 to i8
  %48 = getelementptr inbounds [5 x i8], ptr %9, i64 0, i64 0
  store i8 %47, ptr %48, align 1, !tbaa !14
  %49 = load i32, ptr %7, align 4, !tbaa !12
  %50 = and i32 %49, 255
  %51 = trunc i32 %50 to i8
  %52 = getelementptr inbounds [5 x i8], ptr %9, i64 0, i64 1
  store i8 %51, ptr %52, align 1, !tbaa !14
  br label %84

53:                                               ; preds = %29
  %54 = load i8, ptr %8, align 1, !tbaa !14
  %55 = zext i8 %54 to i32
  %56 = add nsw i32 %55, 4
  %57 = trunc i32 %56 to i8
  store i8 %57, ptr %8, align 1, !tbaa !14
  %58 = load ptr, ptr %5, align 8, !tbaa !5
  %59 = icmp ne ptr %58, null
  br i1 %59, label %63, label %60

60:                                               ; preds = %53
  %61 = load i8, ptr %8, align 1, !tbaa !14
  %62 = zext i8 %61 to i32
  store i32 %62, ptr %4, align 4
  store i32 1, ptr %10, align 4
  br label %102

63:                                               ; preds = %53
  %64 = getelementptr inbounds [5 x i8], ptr %9, i64 0, i64 0
  store i8 -128, ptr %64, align 1, !tbaa !14
  %65 = load i32, ptr %7, align 4, !tbaa !12
  %66 = lshr i32 %65, 24
  %67 = and i32 %66, 255
  %68 = trunc i32 %67 to i8
  %69 = getelementptr inbounds [5 x i8], ptr %9, i64 0, i64 1
  store i8 %68, ptr %69, align 1, !tbaa !14
  %70 = load i32, ptr %7, align 4, !tbaa !12
  %71 = lshr i32 %70, 16
  %72 = and i32 %71, 255
  %73 = trunc i32 %72 to i8
  %74 = getelementptr inbounds [5 x i8], ptr %9, i64 0, i64 2
  store i8 %73, ptr %74, align 1, !tbaa !14
  %75 = load i32, ptr %7, align 4, !tbaa !12
  %76 = lshr i32 %75, 8
  %77 = and i32 %76, 255
  %78 = trunc i32 %77 to i8
  %79 = getelementptr inbounds [5 x i8], ptr %9, i64 0, i64 3
  store i8 %78, ptr %79, align 1, !tbaa !14
  %80 = load i32, ptr %7, align 4, !tbaa !12
  %81 = and i32 %80, 255
  %82 = trunc i32 %81 to i8
  %83 = getelementptr inbounds [5 x i8], ptr %9, i64 0, i64 4
  store i8 %82, ptr %83, align 1, !tbaa !14
  br label %84

84:                                               ; preds = %63, %42
  br label %85

85:                                               ; preds = %84, %24
  br label %95

86:                                               ; preds = %3
  %87 = load ptr, ptr %5, align 8, !tbaa !5
  %88 = icmp ne ptr %87, null
  br i1 %88, label %92, label %89

89:                                               ; preds = %86
  %90 = load i8, ptr %8, align 1, !tbaa !14
  %91 = zext i8 %90 to i32
  store i32 %91, ptr %4, align 4
  store i32 1, ptr %10, align 4
  br label %102

92:                                               ; preds = %86
  %93 = load i8, ptr %6, align 1, !tbaa !14
  %94 = getelementptr inbounds [5 x i8], ptr %9, i64 0, i64 0
  store i8 %93, ptr %94, align 1, !tbaa !14
  br label %95

95:                                               ; preds = %92, %85
  %96 = load ptr, ptr %5, align 8, !tbaa !5
  %97 = getelementptr inbounds [5 x i8], ptr %9, i64 0, i64 0
  %98 = load i8, ptr %8, align 1, !tbaa !14
  %99 = zext i8 %98 to i64
  call void @llvm.memcpy.p0.p0.i64(ptr align 1 %96, ptr align 1 %97, i64 %99, i1 false)
  %100 = load i8, ptr %8, align 1, !tbaa !14
  %101 = zext i8 %100 to i32
  store i32 %101, ptr %4, align 4
  store i32 1, ptr %10, align 4
  br label %102

102:                                              ; preds = %95, %89, %60, %39, %21
  call void @llvm.lifetime.end.p0(i64 5, ptr %9) #11
  call void @llvm.lifetime.end.p0(i64 1, ptr %8) #11
  %103 = load i32, ptr %4, align 4
  ret i32 %103
}