; Function Attrs: mustprogress nofree norecurse nosync nounwind willreturn memory(argmem: readwrite) uwtable
define dso_local range(i32 1, 6) i32 @zipStoreEntryEncoding(ptr noundef writeonly captures(address_is_null) %0, i8 noundef zeroext %1, i32 noundef %2) local_unnamed_addr #2 {
  %4 = alloca [5 x i8], align 1
  call void @llvm.lifetime.start.p0(i64 5, ptr nonnull %4)
  %.not = icmp ugt i8 %1, -65
  br i1 %.not, label %27, label %5

5:                                                ; preds = %3
  %6 = icmp ult i32 %2, 64
  br i1 %6, label %7, label %10

7:                                                ; preds = %5
  %.not30 = icmp eq ptr %0, null
  br i1 %.not30, label %32, label %8

8:                                                ; preds = %7
  %9 = trunc nuw nsw i32 %2 to i8
  store i8 %9, ptr %4, align 1, !tbaa !9
  br label %29

10:                                               ; preds = %5
  %11 = icmp ult i32 %2, 16384
  %.not29 = icmp eq ptr %0, null
  br i1 %11, label %12, label %18

12:                                               ; preds = %10
  br i1 %.not29, label %32, label %13

13:                                               ; preds = %12
  %14 = lshr i32 %2, 8
  %15 = trunc nuw i32 %14 to i8
  %16 = or disjoint i8 %15, 64
  store i8 %16, ptr %4, align 1, !tbaa !9
  %17 = trunc i32 %2 to i8
  %.1..1..1..1..sroa_idx = getelementptr inbounds nuw i8, ptr %4, i64 1
  store i8 %17, ptr %.1..1..1..1..sroa_idx, align 1, !tbaa !9
  br label %29

18:                                               ; preds = %10
  br i1 %.not29, label %32, label %19

19:                                               ; preds = %18
  store i8 -128, ptr %4, align 1, !tbaa !9
  %20 = lshr i32 %2, 24
  %21 = trunc nuw i32 %20 to i8
  %.1..1..1..1..sroa_idx33 = getelementptr inbounds nuw i8, ptr %4, i64 1
  store i8 %21, ptr %.1..1..1..1..sroa_idx33, align 1, !tbaa !9
  %22 = lshr i32 %2, 16
  %23 = trunc i32 %22 to i8
  %.2..2..2..2..sroa_idx = getelementptr inbounds nuw i8, ptr %4, i64 2
  store i8 %23, ptr %.2..2..2..2..sroa_idx, align 1, !tbaa !9
  %24 = lshr i32 %2, 8
  %25 = trunc i32 %24 to i8
  %.3..3..3..3..sroa_idx = getelementptr inbounds nuw i8, ptr %4, i64 3
  store i8 %25, ptr %.3..3..3..3..sroa_idx, align 1, !tbaa !9
  %26 = trunc i32 %2 to i8
  %.4..4..4..4..sroa_idx = getelementptr inbounds nuw i8, ptr %4, i64 4
  store i8 %26, ptr %.4..4..4..4..sroa_idx, align 1, !tbaa !9
  br label %29

27:                                               ; preds = %3
  %.not27 = icmp eq ptr %0, null
  br i1 %.not27, label %32, label %28

28:                                               ; preds = %27
  store i8 %1, ptr %4, align 1, !tbaa !9
  br label %29

29:                                               ; preds = %8, %19, %13, %28
  %.0 = phi i8 [ 1, %8 ], [ 2, %13 ], [ 5, %19 ], [ 1, %28 ]
  %30 = zext nneg i8 %.0 to i64
  call void @llvm.memcpy.p0.p0.i64(ptr noundef nonnull align 1 dereferenceable(1) %0, ptr noundef nonnull align 1 dereferenceable(1) %4, i64 %30, i1 false)
  %31 = zext nneg i8 %.0 to i32
  br label %32

32:                                               ; preds = %27, %18, %12, %7, %29
  %.025 = phi i32 [ %31, %29 ], [ 1, %7 ], [ 2, %12 ], [ 5, %18 ], [ 1, %27 ]
  call void @llvm.lifetime.end.p0(i64 5, ptr nonnull %4)
  ret i32 %.025
}